target datalayout = "e-m:e-p270:32:32-p271:32:32-p272:64:64-i64:64-i128:128-f80:128-n8:16:32:64-S128"
target triple = "x86_64-pc-linux-gnu"

@popup_list = external global ptr, align 8

; Function Attrs: nounwind uwtable
define dso_local i32 @delete_popups() #0 {
  %1 = alloca ptr, align 8
  %2 = alloca ptr, align 8
  call void @llvm.lifetime.start.p0(i64 8, ptr %1) #11
  %3 = load ptr, ptr @popup_list, align 8
  %4 = call ptr @list_iterator_create(ptr noundef %3)
  store ptr %4, ptr %1, align 8
  call void @llvm.lifetime.start.p0(i64 8, ptr %2) #11
  store ptr null, ptr %2, align 8
  br label %5

5:                                                ; preds = %9, %0
  %6 = load ptr, ptr %1, align 8
  %7 = call ptr @list_next(ptr noundef %6)
  store ptr %7, ptr %2, align 8
  %8 = icmp ne ptr %7, null
  br i1 %8, label %9, label %13

9:                                                ; preds = %5
  %10 = load ptr, ptr %1, align 8
  %11 = call ptr @list_remove(ptr noundef %10)
  %12 = load ptr, ptr %2, align 8
  call void @destroy_popup_info(ptr noundef %12)
  br label %5, !llvm.loop !44

13:                                               ; preds = %5
  %14 = load ptr, ptr %1, align 8
  call void @list_iterator_destroy(ptr noundef %14)
  call void @llvm.lifetime.end.p0(i64 8, ptr %2) #11
  call void @llvm.lifetime.end.p0(i64 8, ptr %1) #11
  ret i32 0
}