; Function Attrs: nounwind uwtable
define dso_local noundef i32 @delete_popups() local_unnamed_addr #2 {
  %1 = load ptr, ptr @popup_list, align 8
  %2 = tail call ptr @list_iterator_create(ptr noundef %1) #16
  %3 = tail call ptr @list_next(ptr noundef %2) #16
  %.not4 = icmp eq ptr %3, null
  br i1 %.not4, label %._crit_edge, label %.lr.ph

.lr.ph:                                           ; preds = %0, %.lr.ph
  %4 = phi ptr [ %6, %.lr.ph ], [ %3, %0 ]
  %5 = tail call ptr @list_remove(ptr noundef %2) #16
  tail call void @destroy_popup_info(ptr noundef nonnull %4)
  %6 = tail call ptr @list_next(ptr noundef %2) #16
  %.not = icmp eq ptr %6, null
  br i1 %.not, label %._crit_edge, label %.lr.ph, !llvm.loop !40

._crit_edge:                                      ; preds = %.lr.ph, %0
  tail call void @list_iterator_destroy(ptr noundef %2) #16
  ret i32 0
}